; Function Attrs: nounwind uwtable
define ptr @l_Lean_commitWhen___rarg___lambda__2(ptr noundef %0, ptr noundef %1, ptr noundef %2, ptr noundef %3, i8 noundef zeroext %4) local_unnamed_addr #0 {
  %6 = icmp eq i8 %4, 0
  br i1 %6, label %7, label %37

7:                                                ; preds = %5
  %8 = getelementptr inbounds nuw i8, ptr %0, i64 16
  %9 = load ptr, ptr %8, align 8, !tbaa !4
  %10 = ptrtoint ptr %9 to i64
  %11 = and i64 %10, 1
  %.not54 = icmp eq i64 %11, 0
  br i1 %.not54, label %12, label %lean_inc.exit26

12:                                               ; preds = %7
  %.val.i = load i32, ptr %9, align 4, !tbaa !8
  %13 = icmp sgt i32 %.val.i, 0
  br i1 %13, label %14, label %16, !prof !11

14:                                               ; preds = %12
  %15 = add nuw i32 %.val.i, 1
  store i32 %15, ptr %9, align 4, !tbaa !8
  br label %lean_inc.exit26

16:                                               ; preds = %12
  %.not.i42 = icmp eq i32 %.val.i, 0
  br i1 %.not.i42, label %lean_inc.exit26, label %17

17:                                               ; preds = %16
  tail call void @lean_inc_ref_cold(ptr noundef nonnull %9) #3
  br label %lean_inc.exit26

lean_inc.exit26:                                  ; preds = %17, %16, %14, %7
  %18 = ptrtoint ptr %0 to i64
  %19 = and i64 %18, 1
  %.not55 = icmp eq i64 %19, 0
  br i1 %.not55, label %20, label %lean_dec.exit31

20:                                               ; preds = %lean_inc.exit26
  %21 = load i32, ptr %0, align 4, !tbaa !8
  %22 = icmp sgt i32 %21, 1
  br i1 %22, label %23, label %25, !prof !11

23:                                               ; preds = %20
  %24 = add nsw i32 %21, -1
  store i32 %24, ptr %0, align 4, !tbaa !8
  br label %lean_dec.exit31

25:                                               ; preds = %20
  %.not.i = icmp eq i32 %21, 0
  br i1 %.not.i, label %lean_dec.exit31, label %26

26:                                               ; preds = %25
  tail call void @lean_dec_ref_cold(ptr noundef nonnull %0) #3
  br label %lean_dec.exit31

lean_dec.exit31:                                  ; preds = %26, %25, %23, %lean_inc.exit26
  %27 = tail call ptr @lean_apply_1(ptr noundef %9, ptr noundef %1) #3
  tail call void @lean_inc_heartbeat() #3
  %28 = tail call noalias ptr @mi_malloc_small(i64 noundef 32) #3
  %29 = icmp eq ptr %28, null
  br i1 %29, label %30, label %lean_alloc_closure.exit

30:                                               ; preds = %lean_dec.exit31
  tail call void @lean_internal_panic_out_of_memory() #4
  unreachable

lean_alloc_closure.exit:                          ; preds = %lean_dec.exit31
  %31 = getelementptr inbounds nuw i8, ptr %28, i64 4
  store i32 1, ptr %28, align 4, !tbaa !8
  store i32 -184549344, ptr %31, align 4
  %32 = getelementptr inbounds nuw i8, ptr %28, i64 8
  store ptr @l_Lean_commitWhen___rarg___lambda__1___boxed, ptr %32, align 8, !tbaa !4
  %33 = getelementptr inbounds nuw i8, ptr %28, i64 16
  store i16 2, ptr %33, align 8, !tbaa !12
  %34 = getelementptr inbounds nuw i8, ptr %28, i64 18
  store i16 1, ptr %34, align 2, !tbaa !12
  %35 = getelementptr inbounds nuw i8, ptr %28, i64 24
  store ptr %2, ptr %35, align 8, !tbaa !4
  %36 = tail call ptr @lean_apply_4(ptr noundef %3, ptr noundef nonnull inttoptr (i64 1 to ptr), ptr noundef nonnull inttoptr (i64 1 to ptr), ptr noundef %27, ptr noundef nonnull %28) #3
  br label %102

37:                                               ; preds = %5
  %38 = ptrtoint ptr %3 to i64
  %39 = and i64 %38, 1
  %.not = icmp eq i64 %39, 0
  br i1 %.not, label %40, label %lean_dec.exit30

40:                                               ; preds = %37
  %41 = load i32, ptr %3, align 4, !tbaa !8
  %42 = icmp sgt i32 %41, 1
  br i1 %42, label %43, label %45, !prof !11

43:                                               ; preds = %40
  %44 = add nsw i32 %41, -1
  store i32 %44, ptr %3, align 4, !tbaa !8
  br label %lean_dec.exit30

45:                                               ; preds = %40
  %.not.i32 = icmp eq i32 %41, 0
  br i1 %.not.i32, label %lean_dec.exit30, label %46

46:                                               ; preds = %45
  tail call void @lean_dec_ref_cold(ptr noundef nonnull %3) #3
  br label %lean_dec.exit30

lean_dec.exit30:                                  ; preds = %46, %45, %43, %37
  %47 = ptrtoint ptr %1 to i64
  %48 = and i64 %47, 1
  %.not49 = icmp eq i64 %48, 0
  br i1 %.not49, label %49, label %lean_dec.exit29

49:                                               ; preds = %lean_dec.exit30
  %50 = load i32, ptr %1, align 4, !tbaa !8
  %51 = icmp sgt i32 %50, 1
  br i1 %51, label %52, label %54, !prof !11

52:                                               ; preds = %49
  %53 = add nsw i32 %50, -1
  store i32 %53, ptr %1, align 4, !tbaa !8
  br label %lean_dec.exit29

54:                                               ; preds = %49
  %.not.i34 = icmp eq i32 %50, 0
  br i1 %.not.i34, label %lean_dec.exit29, label %55

55:                                               ; preds = %54
  tail call void @lean_dec_ref_cold(ptr noundef nonnull %1) #3
  br label %lean_dec.exit29

lean_dec.exit29:                                  ; preds = %55, %54, %52, %lean_dec.exit30
  %56 = ptrtoint ptr %0 to i64
  %57 = and i64 %56, 1
  %.not50 = icmp eq i64 %57, 0
  br i1 %.not50, label %58, label %lean_dec.exit28

58:                                               ; preds = %lean_dec.exit29
  %59 = load i32, ptr %0, align 4, !tbaa !8
  %60 = icmp sgt i32 %59, 1
  br i1 %60, label %61, label %63, !prof !11

61:                                               ; preds = %58
  %62 = add nsw i32 %59, -1
  store i32 %62, ptr %0, align 4, !tbaa !8
  br label %lean_dec.exit28

63:                                               ; preds = %58
  %.not.i36 = icmp eq i32 %59, 0
  br i1 %.not.i36, label %lean_dec.exit28, label %64

64:                                               ; preds = %63
  tail call void @lean_dec_ref_cold(ptr noundef nonnull %0) #3
  br label %lean_dec.exit28

lean_dec.exit28:                                  ; preds = %64, %63, %61, %lean_dec.exit29
  %65 = getelementptr inbounds nuw i8, ptr %2, i64 8
  %66 = load ptr, ptr %65, align 8, !tbaa !4
  %67 = ptrtoint ptr %66 to i64
  %68 = and i64 %67, 1
  %.not51 = icmp eq i64 %68, 0
  br i1 %.not51, label %69, label %lean_inc.exit25

69:                                               ; preds = %lean_dec.exit28
  %.val.i43 = load i32, ptr %66, align 4, !tbaa !8
  %70 = icmp sgt i32 %.val.i43, 0
  br i1 %70, label %71, label %73, !prof !11

71:                                               ; preds = %69
  %72 = add nuw i32 %.val.i43, 1
  store i32 %72, ptr %66, align 4, !tbaa !8
  br label %lean_inc.exit25

73:                                               ; preds = %69
  %.not.i44 = icmp eq i32 %.val.i43, 0
  br i1 %.not.i44, label %lean_inc.exit25, label %74

74:                                               ; preds = %73
  tail call void @lean_inc_ref_cold(ptr noundef nonnull %66) #3
  br label %lean_inc.exit25

lean_inc.exit25:                                  ; preds = %74, %73, %71, %lean_dec.exit28
  %75 = ptrtoint ptr %2 to i64
  %76 = and i64 %75, 1
  %.not52 = icmp eq i64 %76, 0
  br i1 %.not52, label %77, label %lean_dec.exit27

77:                                               ; preds = %lean_inc.exit25
  %78 = load i32, ptr %2, align 4, !tbaa !8
  %79 = icmp sgt i32 %78, 1
  br i1 %79, label %80, label %82, !prof !11

80:                                               ; preds = %77
  %81 = add nsw i32 %78, -1
  store i32 %81, ptr %2, align 4, !tbaa !8
  br label %lean_dec.exit27

82:                                               ; preds = %77
  %.not.i38 = icmp eq i32 %78, 0
  br i1 %.not.i38, label %lean_dec.exit27, label %83

83:                                               ; preds = %82
  tail call void @lean_dec_ref_cold(ptr noundef nonnull %2) #3
  br label %lean_dec.exit27

lean_dec.exit27:                                  ; preds = %83, %82, %80, %lean_inc.exit25
  %84 = getelementptr inbounds nuw i8, ptr %66, i64 16
  %85 = load ptr, ptr %84, align 8, !tbaa !4
  %86 = ptrtoint ptr %85 to i64
  %87 = and i64 %86, 1
  %.not53 = icmp eq i64 %87, 0
  br i1 %.not53, label %88, label %lean_inc.exit

88:                                               ; preds = %lean_dec.exit27
  %.val.i46 = load i32, ptr %85, align 4, !tbaa !8
  %89 = icmp sgt i32 %.val.i46, 0
  br i1 %89, label %90, label %92, !prof !11

90:                                               ; preds = %88
  %91 = add nuw i32 %.val.i46, 1
  store i32 %91, ptr %85, align 4, !tbaa !8
  br label %lean_inc.exit

92:                                               ; preds = %88
  %.not.i47 = icmp eq i32 %.val.i46, 0
  br i1 %.not.i47, label %lean_inc.exit, label %93

93:                                               ; preds = %92
  tail call void @lean_inc_ref_cold(ptr noundef nonnull %85) #3
  br label %lean_inc.exit

lean_inc.exit:                                    ; preds = %93, %92, %90, %lean_dec.exit27
  br i1 %.not51, label %94, label %lean_dec.exit

94:                                               ; preds = %lean_inc.exit
  %95 = load i32, ptr %66, align 4, !tbaa !8
  %96 = icmp sgt i32 %95, 1
  br i1 %96, label %97, label %99, !prof !11

97:                                               ; preds = %94
  %98 = add nsw i32 %95, -1
  store i32 %98, ptr %66, align 4, !tbaa !8
  br label %lean_dec.exit

99:                                               ; preds = %94
  %.not.i40 = icmp eq i32 %95, 0
  br i1 %.not.i40, label %lean_dec.exit, label %100

100:                                              ; preds = %99
  tail call void @lean_dec_ref_cold(ptr noundef nonnull %66) #3
  br label %lean_dec.exit

lean_dec.exit:                                    ; preds = %100, %99, %97, %lean_inc.exit
  %101 = tail call ptr @lean_apply_2(ptr noundef %85, ptr noundef nonnull inttoptr (i64 1 to ptr), ptr noundef nonnull inttoptr (i64 3 to ptr)) #3
  br label %102

102:                                              ; preds = %lean_dec.exit, %lean_alloc_closure.exit
  %.0 = phi ptr [ %36, %lean_alloc_closure.exit ], [ %101, %lean_dec.exit ]
  ret ptr %.0
}